; Function Attrs: mustprogress uwtable
define hidden noundef nonnull align 8 dereferenceable(8) ptr @_ZN4cvc58internallsERSoNS0_16TConvCachePolicyE(ptr noundef nonnull returned align 8 dereferenceable(8) %out, i32 noundef %tcpol) local_unnamed_addr #3 {
entry:
  %0 = icmp ult i32 %tcpol, 3
  br i1 %0, label %switch.lookup, label %sw.epilog

switch.lookup:                                    ; preds = %entry
  %1 = zext nneg i32 %tcpol to i64
  %switch.gep = getelementptr inbounds [3 x ptr], ptr @switch.table._ZNK4cvc58internal19TConvProofGenerator13toStringDebugB5cxx11Ev, i64 0, i64 %1
  %switch.load = load ptr, ptr %switch.gep, align 8
  br label %sw.epilog

sw.epilog:                                        ; preds = %entry, %switch.lookup
  %.str.6.sink = phi ptr [ %switch.load, %switch.lookup ], [ @.str.6, %entry ]
  %call5 = tail call noundef nonnull align 8 dereferenceable(8) ptr @_ZStlsISt11char_traitsIcEERSt13basic_ostreamIcT_ES5_PKc(ptr noundef nonnull align 8 dereferenceable(8) %out, ptr noundef nonnull %.str.6.sink)
  ret ptr %out
}